target datalayout = "e-m:e-p270:32:32-p271:32:32-p272:64:64-i64:64-i128:128-f80:128-n8:16:32:64-S128"
target triple = "x86_64-pc-linux-gnu"

%struct.Vec_Int_t_ = type { i32, i32, ptr }
%struct.Vec_Wec_t_ = type { i32, i32, ptr }

; Function Attrs: inlinehint nounwind uwtable
define internal void @Vec_IntClear(ptr noundef %0) #1 {
  %2 = alloca ptr, align 8
  store ptr %0, ptr %2, align 8, !tbaa !10
  %3 = load ptr, ptr %2, align 8, !tbaa !10
  %4 = getelementptr inbounds nuw %struct.Vec_Int_t_, ptr %3, i32 0, i32 1
  store i32 0, ptr %4, align 4, !tbaa !42
  ret void
}

; Function Attrs: nounwind uwtable
define i32 @Gia_ManMulFindNextEntryCount(ptr noundef %0, i32 noundef %1) #0 {
  %3 = alloca i32, align 4
  %4 = alloca ptr, align 8
  %5 = alloca i32, align 4
  %6 = alloca i32, align 4
  %7 = alloca i32, align 4
  %8 = alloca i32, align 4
  %9 = alloca i32, align 4
  store ptr %0, ptr %4, align 8, !tbaa !10
  store i32 %1, ptr %5, align 4, !tbaa !12
  call void @llvm.lifetime.start.p0(i64 4, ptr %6) #10
  call void @llvm.lifetime.start.p0(i64 4, ptr %7) #10
  call void @llvm.lifetime.start.p0(i64 4, ptr %8) #10
  store i32 0, ptr %8, align 4, !tbaa !12
  br label %10

10:                                               ; preds = %34, %2
  %11 = load i32, ptr %8, align 4, !tbaa !12
  %12 = add nsw i32 %11, 1
  %13 = load ptr, ptr %4, align 8, !tbaa !10
  %14 = call i32 @Vec_IntSize(ptr noundef %13)
  %15 = icmp slt i32 %12, %14
  br i1 %15, label %16, label %25

16:                                               ; preds = %10
  %17 = load ptr, ptr %4, align 8, !tbaa !10
  %18 = load i32, ptr %8, align 4, !tbaa !12
  %19 = call i32 @Vec_IntEntry(ptr noundef %17, i32 noundef %18)
  store i32 %19, ptr %6, align 4, !tbaa !12
  br i1 true, label %20, label %25

20:                                               ; preds = %16
  %21 = load ptr, ptr %4, align 8, !tbaa !10
  %22 = load i32, ptr %8, align 4, !tbaa !12
  %23 = add nsw i32 %22, 1
  %24 = call i32 @Vec_IntEntry(ptr noundef %21, i32 noundef %23)
  store i32 %24, ptr %7, align 4, !tbaa !12
  br label %25

25:                                               ; preds = %20, %16, %10
  %26 = phi i1 [ false, %16 ], [ false, %10 ], [ true, %20 ]
  br i1 %26, label %27, label %37

27:                                               ; preds = %25
  %28 = load i32, ptr %6, align 4, !tbaa !12
  %29 = load i32, ptr %5, align 4, !tbaa !12
  %30 = icmp eq i32 %28, %29
  br i1 %30, label %31, label %33

31:                                               ; preds = %27
  %32 = load i32, ptr %7, align 4, !tbaa !12
  store i32 %32, ptr %3, align 4
  store i32 1, ptr %9, align 4
  br label %38

33:                                               ; preds = %27
  br label %34

34:                                               ; preds = %33
  %35 = load i32, ptr %8, align 4, !tbaa !12
  %36 = add nsw i32 %35, 2
  store i32 %36, ptr %8, align 4, !tbaa !12
  br label %10, !llvm.loop !75

37:                                               ; preds = %25
  store i32 -1, ptr %3, align 4
  store i32 1, ptr %9, align 4
  br label %38

38:                                               ; preds = %37, %31
  call void @llvm.lifetime.end.p0(i64 4, ptr %8) #10
  call void @llvm.lifetime.end.p0(i64 4, ptr %7) #10
  call void @llvm.lifetime.end.p0(i64 4, ptr %6) #10
  %39 = load i32, ptr %3, align 4
  ret i32 %39
}

; Function Attrs: inlinehint nounwind uwtable
define internal i32 @Vec_IntFind(ptr noundef %0, i32 noundef %1) #1 {
  %3 = alloca i32, align 4
  %4 = alloca ptr, align 8
  %5 = alloca i32, align 4
  %6 = alloca i32, align 4
  %7 = alloca i32, align 4
  store ptr %0, ptr %4, align 8, !tbaa !10
  store i32 %1, ptr %5, align 4, !tbaa !12
  call void @llvm.lifetime.start.p0(i64 4, ptr %6) #10
  store i32 0, ptr %6, align 4, !tbaa !12
  br label %8

8:                                                ; preds = %27, %2
  %9 = load i32, ptr %6, align 4, !tbaa !12
  %10 = load ptr, ptr %4, align 8, !tbaa !10
  %11 = getelementptr inbounds nuw %struct.Vec_Int_t_, ptr %10, i32 0, i32 1
  %12 = load i32, ptr %11, align 4, !tbaa !42
  %13 = icmp slt i32 %9, %12
  br i1 %13, label %14, label %30

14:                                               ; preds = %8
  %15 = load ptr, ptr %4, align 8, !tbaa !10
  %16 = getelementptr inbounds nuw %struct.Vec_Int_t_, ptr %15, i32 0, i32 2
  %17 = load ptr, ptr %16, align 8, !tbaa !44
  %18 = load i32, ptr %6, align 4, !tbaa !12
  %19 = sext i32 %18 to i64
  %20 = getelementptr inbounds i32, ptr %17, i64 %19
  %21 = load i32, ptr %20, align 4, !tbaa !12
  %22 = load i32, ptr %5, align 4, !tbaa !12
  %23 = icmp eq i32 %21, %22
  br i1 %23, label %24, label %26

24:                                               ; preds = %14
  %25 = load i32, ptr %6, align 4, !tbaa !12
  store i32 %25, ptr %3, align 4
  store i32 1, ptr %7, align 4
  br label %31

26:                                               ; preds = %14
  br label %27

27:                                               ; preds = %26
  %28 = load i32, ptr %6, align 4, !tbaa !12
  %29 = add nsw i32 %28, 1
  store i32 %29, ptr %6, align 4, !tbaa !12
  br label %8, !llvm.loop !67

30:                                               ; preds = %8
  store i32 -1, ptr %3, align 4
  store i32 1, ptr %7, align 4
  br label %31

31:                                               ; preds = %30, %24
  call void @llvm.lifetime.end.p0(i64 4, ptr %6) #10
  %32 = load i32, ptr %3, align 4
  ret i32 %32
}

; Function Attrs: inlinehint nounwind uwtable
define internal ptr @Vec_WecEntry(ptr noundef %0, i32 noundef %1) #1 {
  %3 = alloca ptr, align 8
  %4 = alloca i32, align 4
  store ptr %0, ptr %3, align 8, !tbaa !33
  store i32 %1, ptr %4, align 4, !tbaa !12
  %5 = load ptr, ptr %3, align 8, !tbaa !33
  %6 = getelementptr inbounds nuw %struct.Vec_Wec_t_, ptr %5, i32 0, i32 2
  %7 = load ptr, ptr %6, align 8, !tbaa !41
  %8 = load i32, ptr %4, align 4, !tbaa !12
  %9 = sext i32 %8 to i64
  %10 = getelementptr inbounds %struct.Vec_Int_t_, ptr %7, i64 %9
  ret ptr %10
}

; Function Attrs: inlinehint nounwind uwtable
define internal i32 @Vec_IntEntry(ptr noundef %0, i32 noundef %1) #1 {
  %3 = alloca ptr, align 8
  %4 = alloca i32, align 4
  store ptr %0, ptr %3, align 8, !tbaa !10
  store i32 %1, ptr %4, align 4, !tbaa !12
  %5 = load ptr, ptr %3, align 8, !tbaa !10
  %6 = getelementptr inbounds nuw %struct.Vec_Int_t_, ptr %5, i32 0, i32 2
  %7 = load ptr, ptr %6, align 8, !tbaa !44
  %8 = load i32, ptr %4, align 4, !tbaa !12
  %9 = sext i32 %8 to i64
  %10 = getelementptr inbounds i32, ptr %7, i64 %9
  %11 = load i32, ptr %10, align 4, !tbaa !12
  ret i32 %11
}

; Function Attrs: inlinehint nounwind uwtable
define internal i32 @Vec_IntSize(ptr noundef %0) #1 {
  %2 = alloca ptr, align 8
  store ptr %0, ptr %2, align 8, !tbaa !10
  %3 = load ptr, ptr %2, align 8, !tbaa !10
  %4 = getelementptr inbounds nuw %struct.Vec_Int_t_, ptr %3, i32 0, i32 1
  %5 = load i32, ptr %4, align 4, !tbaa !42
  ret i32 %5
}

; Function Attrs: nounwind uwtable
define i32 @Gia_ManMulFindNextEntry2(ptr noundef %0, ptr noundef %1, i32 noundef %2, ptr noundef %3, ptr noundef %4, ptr noundef %5) #0 {
  %7 = alloca i32, align 4
  %8 = alloca ptr, align 8
  %9 = alloca ptr, align 8
  %10 = alloca i32, align 4
  %11 = alloca ptr, align 8
  %12 = alloca ptr, align 8
  %13 = alloca ptr, align 8
  %14 = alloca i32, align 4
  %15 = alloca i32, align 4
  %16 = alloca ptr, align 8
  %17 = alloca i32, align 4
  %18 = alloca i32, align 4
  %19 = alloca i32, align 4
  %20 = alloca i32, align 4
  %21 = alloca i32, align 4
  %22 = alloca i32, align 4
  %23 = alloca ptr, align 8
  store ptr %0, ptr %8, align 8, !tbaa !33
  store ptr %1, ptr %9, align 8, !tbaa !10
  store i32 %2, ptr %10, align 4, !tbaa !12
  store ptr %3, ptr %11, align 8, !tbaa !10
  store ptr %4, ptr %12, align 8, !tbaa !76
  store ptr %5, ptr %13, align 8, !tbaa !76
  call void @llvm.lifetime.start.p0(i64 4, ptr %14) #10
  call void @llvm.lifetime.start.p0(i64 4, ptr %15) #10
  store i32 0, ptr %14, align 4, !tbaa !12
  br label %24

24:                                               ; preds = %141, %6
  %25 = load i32, ptr %14, align 4, !tbaa !12
  %26 = load ptr, ptr %9, align 8, !tbaa !10
  %27 = call i32 @Vec_IntSize(ptr noundef %26)
  %28 = icmp slt i32 %25, %27
  br i1 %28, label %29, label %33

29:                                               ; preds = %24
  %30 = load ptr, ptr %9, align 8, !tbaa !10
  %31 = load i32, ptr %14, align 4, !tbaa !12
  %32 = call i32 @Vec_IntEntry(ptr noundef %30, i32 noundef %31)
  store i32 %32, ptr %15, align 4, !tbaa !12
  br label %33

33:                                               ; preds = %29, %24
  %34 = phi i1 [ false, %24 ], [ true, %29 ]
  br i1 %34, label %35, label %144

35:                                               ; preds = %33
  call void @llvm.lifetime.start.p0(i64 8, ptr %16) #10
  %36 = load ptr, ptr %8, align 8, !tbaa !33
  %37 = load i32, ptr %15, align 4, !tbaa !12
  %38 = call ptr @Vec_WecEntry(ptr noundef %36, i32 noundef %37)
  store ptr %38, ptr %16, align 8, !tbaa !10
  %39 = load ptr, ptr %16, align 8, !tbaa !10
  %40 = call i32 @Vec_IntSize(ptr noundef %39)
  %41 = icmp eq i32 %40, 0
  br i1 %41, label %42, label %43

42:                                               ; preds = %35
  store i32 4, ptr %17, align 4
  br label %139

43:                                               ; preds = %35
  call void @llvm.lifetime.start.p0(i64 4, ptr %18) #10
  call void @llvm.lifetime.start.p0(i64 4, ptr %19) #10
  call void @llvm.lifetime.start.p0(i64 4, ptr %20) #10
  %44 = load ptr, ptr %16, align 8, !tbaa !10
  %45 = load i32, ptr %10, align 4, !tbaa !12
  %46 = call i32 @Vec_IntFind(ptr noundef %44, i32 noundef %45)
  store i32 %46, ptr %20, align 4, !tbaa !12
  %47 = load i32, ptr %20, align 4, !tbaa !12
  %48 = icmp eq i32 %47, -1
  br i1 %48, label %49, label %50

49:                                               ; preds = %43
  store i32 4, ptr %17, align 4
  br label %138

50:                                               ; preds = %43
  %51 = load i32, ptr %20, align 4, !tbaa !12
  %52 = icmp eq i32 %51, 1
  br i1 %52, label %53, label %58

53:                                               ; preds = %50
  %54 = load ptr, ptr %16, align 8, !tbaa !10
  %55 = call i32 @Vec_IntEntry(ptr noundef %54, i32 noundef 2)
  store i32 %55, ptr %18, align 4, !tbaa !12
  %56 = load ptr, ptr %16, align 8, !tbaa !10
  %57 = call i32 @Vec_IntEntry(ptr noundef %56, i32 noundef 3)
  store i32 %57, ptr %19, align 4, !tbaa !12
  br label %77

58:                                               ; preds = %50
  %59 = load i32, ptr %20, align 4, !tbaa !12
  %60 = icmp eq i32 %59, 2
  br i1 %60, label %61, label %66

61:                                               ; preds = %58
  %62 = load ptr, ptr %16, align 8, !tbaa !10
  %63 = call i32 @Vec_IntEntry(ptr noundef %62, i32 noundef 1)
  store i32 %63, ptr %18, align 4, !tbaa !12
  %64 = load ptr, ptr %16, align 8, !tbaa !10
  %65 = call i32 @Vec_IntEntry(ptr noundef %64, i32 noundef 3)
  store i32 %65, ptr %19, align 4, !tbaa !12
  br label %76

66:                                               ; preds = %58
  %67 = load i32, ptr %20, align 4, !tbaa !12
  %68 = icmp eq i32 %67, 3
  br i1 %68, label %69, label %74

69:                                               ; preds = %66
  %70 = load ptr, ptr %16, align 8, !tbaa !10
  %71 = call i32 @Vec_IntEntry(ptr noundef %70, i32 noundef 1)
  store i32 %71, ptr %18, align 4, !tbaa !12
  %72 = load ptr, ptr %16, align 8, !tbaa !10
  %73 = call i32 @Vec_IntEntry(ptr noundef %72, i32 noundef 2)
  store i32 %73, ptr %19, align 4, !tbaa !12
  br label %75

74:                                               ; preds = %66
  br label %75

75:                                               ; preds = %74, %69
  br label %76

76:                                               ; preds = %75, %61
  br label %77

77:                                               ; preds = %76, %53
  call void @llvm.lifetime.start.p0(i64 4, ptr %21) #10
  %78 = load ptr, ptr %11, align 8, !tbaa !10
  %79 = load i32, ptr %18, align 4, !tbaa !12
  %80 = call i32 @Gia_ManMulFindNextEntryCount(ptr noundef %78, i32 noundef %79)
  store i32 %80, ptr %21, align 4, !tbaa !12
  call void @llvm.lifetime.start.p0(i64 4, ptr %22) #10
  %81 = load ptr, ptr %11, align 8, !tbaa !10
  %82 = load i32, ptr %19, align 4, !tbaa !12
  %83 = call i32 @Gia_ManMulFindNextEntryCount(ptr noundef %81, i32 noundef %82)
  store i32 %83, ptr %22, align 4, !tbaa !12
  %84 = load i32, ptr %21, align 4, !tbaa !12
  %85 = load i32, ptr %22, align 4, !tbaa !12
  %86 = icmp sle i32 %84, %85
  br i1 %86, label %87, label %89

87:                                               ; preds = %77
  %88 = load i32, ptr %18, align 4, !tbaa !12
  br label %91

89:                                               ; preds = %77
  %90 = load i32, ptr %19, align 4, !tbaa !12
  br label %91

91:                                               ; preds = %89, %87
  %92 = phi i32 [ %88, %87 ], [ %90, %89 ]
  %93 = load ptr, ptr %12, align 8, !tbaa !76
  store i32 %92, ptr %93, align 4, !tbaa !12
  %94 = load i32, ptr %21, align 4, !tbaa !12
  %95 = load i32, ptr %22, align 4, !tbaa !12
  %96 = icmp sle i32 %94, %95
  br i1 %96, label %97, label %99

97:                                               ; preds = %91
  %98 = load i32, ptr %19, align 4, !tbaa !12
  br label %101

99:                                               ; preds = %91
  %100 = load i32, ptr %18, align 4, !tbaa !12
  br label %101

101:                                              ; preds = %99, %97
  %102 = phi i32 [ %98, %97 ], [ %100, %99 ]
  %103 = load ptr, ptr %13, align 8, !tbaa !76
  store i32 %102, ptr %103, align 4, !tbaa !12
  store i32 0, ptr %14, align 4, !tbaa !12
  br label %104

104:                                              ; preds = %134, %101
  %105 = load i32, ptr %14, align 4, !tbaa !12
  %106 = load ptr, ptr %9, align 8, !tbaa !10
  %107 = call i32 @Vec_IntSize(ptr noundef %106)
  %108 = icmp slt i32 %105, %107
  br i1 %108, label %109, label %113

109:                                              ; preds = %104
  %110 = load ptr, ptr %9, align 8, !tbaa !10
  %111 = load i32, ptr %14, align 4, !tbaa !12
  %112 = call i32 @Vec_IntEntry(ptr noundef %110, i32 noundef %111)
  store i32 %112, ptr %15, align 4, !tbaa !12
  br label %113

113:                                              ; preds = %109, %104
  %114 = phi i1 [ false, %104 ], [ true, %109 ]
  br i1 %114, label %115, label %137

115:                                              ; preds = %113
  call void @llvm.lifetime.start.p0(i64 8, ptr %23) #10
  %116 = load ptr, ptr %8, align 8, !tbaa !33
  %117 = load i32, ptr %15, align 4, !tbaa !12
  %118 = call ptr @Vec_WecEntry(ptr noundef %116, i32 noundef %117)
  store ptr %118, ptr %23, align 8, !tbaa !10
  %119 = load ptr, ptr %23, align 8, !tbaa !10
  %120 = call i32 @Vec_IntSize(ptr noundef %119)
  %121 = icmp eq i32 %120, 0
  br i1 %121, label %122, label %123

122:                                              ; preds = %115
  store i32 7, ptr %17, align 4
  br label %131

123:                                              ; preds = %115
  %124 = load ptr, ptr %23, align 8, !tbaa !10
  %125 = load i32, ptr %10, align 4, !tbaa !12
  %126 = call i32 @Vec_IntFind(ptr noundef %124, i32 noundef %125)
  %127 = icmp sge i32 %126, 0
  br i1 %127, label %128, label %130

128:                                              ; preds = %123
  %129 = load ptr, ptr %23, align 8, !tbaa !10
  call void @Vec_IntClear(ptr noundef %129)
  br label %130

130:                                              ; preds = %128, %123
  store i32 0, ptr %17, align 4
  br label %131

131:                                              ; preds = %130, %122
  call void @llvm.lifetime.end.p0(i64 8, ptr %23) #10
  %132 = load i32, ptr %17, align 4
  switch i32 %132, label %147 [
    i32 0, label %133
    i32 7, label %134
  ]

133:                                              ; preds = %131
  br label %134

134:                                              ; preds = %133, %131
  %135 = load i32, ptr %14, align 4, !tbaa !12
  %136 = add nsw i32 %135, 1
  store i32 %136, ptr %14, align 4, !tbaa !12
  br label %104, !llvm.loop !77

137:                                              ; preds = %113
  store i32 1, ptr %7, align 4
  store i32 1, ptr %17, align 4
  call void @llvm.lifetime.end.p0(i64 4, ptr %22) #10
  call void @llvm.lifetime.end.p0(i64 4, ptr %21) #10
  br label %138

138:                                              ; preds = %137, %49
  call void @llvm.lifetime.end.p0(i64 4, ptr %20) #10
  call void @llvm.lifetime.end.p0(i64 4, ptr %19) #10
  call void @llvm.lifetime.end.p0(i64 4, ptr %18) #10
  br label %139

139:                                              ; preds = %138, %42
  call void @llvm.lifetime.end.p0(i64 8, ptr %16) #10
  %140 = load i32, ptr %17, align 4
  switch i32 %140, label %145 [
    i32 4, label %141
  ]

141:                                              ; preds = %139
  %142 = load i32, ptr %14, align 4, !tbaa !12
  %143 = add nsw i32 %142, 1
  store i32 %143, ptr %14, align 4, !tbaa !12
  br label %24, !llvm.loop !78

144:                                              ; preds = %33
  store i32 0, ptr %7, align 4
  store i32 1, ptr %17, align 4
  br label %145

145:                                              ; preds = %144, %139
  call void @llvm.lifetime.end.p0(i64 4, ptr %15) #10
  call void @llvm.lifetime.end.p0(i64 4, ptr %14) #10
  %146 = load i32, ptr %7, align 4
  ret i32 %146

147:                                              ; preds = %131
  unreachable
}