; Function Attrs: nofree norecurse nosync nounwind memory(readwrite, inaccessiblemem: none) uwtable
define range(i32 0, 2) i32 @Gia_ManMulFindNextEntry2(ptr noundef readonly captures(none) %0, ptr noundef readonly captures(none) %1, i32 noundef %2, ptr noundef readonly captures(none) %3, ptr noundef writeonly captures(none) %4, ptr noundef writeonly captures(none) %5) local_unnamed_addr #6 {
  %7 = getelementptr i8, ptr %1, i64 4
  %.val65 = load i32, ptr %7, align 4, !tbaa !33
  %8 = icmp sgt i32 %.val65, 0
  br i1 %8, label %.lr.ph, label %.critedge

.lr.ph:                                           ; preds = %6
  %9 = getelementptr i8, ptr %1, i64 8
  %.val73 = load ptr, ptr %9, align 8, !tbaa !35
  %10 = getelementptr i8, ptr %0, i64 8
  %.val75 = load ptr, ptr %10, align 8, !tbaa !39
  %wide.trip.count = zext nneg i32 %.val65 to i64
  br label %11

11:                                               ; preds = %.lr.ph, %Vec_IntFind.exit.thread
  %indvars.iv = phi i64 [ 0, %.lr.ph ], [ %indvars.iv.next, %Vec_IntFind.exit.thread ]
  %12 = getelementptr inbounds nuw i32, ptr %.val73, i64 %indvars.iv
  %13 = load i32, ptr %12, align 4, !tbaa !29
  %14 = sext i32 %13 to i64
  %15 = getelementptr inbounds %struct.Vec_Int_t_, ptr %.val75, i64 %14
  %16 = getelementptr i8, ptr %15, i64 4
  %.val64 = load i32, ptr %16, align 4, !tbaa !33
  %17 = icmp sgt i32 %.val64, 0
  br i1 %17, label %.lr.ph.i, label %Vec_IntFind.exit.thread

.lr.ph.i:                                         ; preds = %11
  %18 = getelementptr i8, ptr %15, i64 8
  %19 = load ptr, ptr %18, align 8, !tbaa !35
  %wide.trip.count.i = zext nneg i32 %.val64 to i64
  br label %20

20:                                               ; preds = %24, %.lr.ph.i
  %indvars.iv.i = phi i64 [ 0, %.lr.ph.i ], [ %indvars.iv.next.i, %24 ]
  %21 = getelementptr inbounds nuw i32, ptr %19, i64 %indvars.iv.i
  %22 = load i32, ptr %21, align 4, !tbaa !29
  %23 = icmp eq i32 %22, %2
  br i1 %23, label %Vec_IntFind.exit, label %24

24:                                               ; preds = %20
  %indvars.iv.next.i = add nuw nsw i64 %indvars.iv.i, 1
  %exitcond.not.i = icmp eq i64 %indvars.iv.next.i, %wide.trip.count.i
  br i1 %exitcond.not.i, label %Vec_IntFind.exit.thread, label %20, !llvm.loop !61

Vec_IntFind.exit:                                 ; preds = %20
  %25 = trunc nuw nsw i64 %indvars.iv.i to i32
  switch i32 %25, label %.loopexit [
    i32 -1, label %Vec_IntFind.exit.thread
    i32 1, label %.loopexit.sink.split.loopexit
    i32 2, label %.loopexit.sink.split
    i32 3, label %26
  ]

26:                                               ; preds = %Vec_IntFind.exit
  br label %.loopexit.sink.split

.loopexit.sink.split.loopexit:                    ; preds = %Vec_IntFind.exit
  br label %.loopexit.sink.split

.loopexit.sink.split:                             ; preds = %Vec_IntFind.exit, %.loopexit.sink.split.loopexit, %26
  %.sink160 = phi i64 [ 4, %26 ], [ 8, %.loopexit.sink.split.loopexit ], [ 4, %Vec_IntFind.exit ]
  %.sink159 = phi i64 [ 8, %26 ], [ 12, %.loopexit.sink.split.loopexit ], [ 12, %Vec_IntFind.exit ]
  %27 = getelementptr inbounds nuw i8, ptr %19, i64 %.sink160
  %28 = load i32, ptr %27, align 4, !tbaa !29
  %29 = getelementptr inbounds nuw i8, ptr %19, i64 %.sink159
  %30 = load i32, ptr %29, align 4, !tbaa !29
  br label %.loopexit

.loopexit:                                        ; preds = %Vec_IntFind.exit, %.loopexit.sink.split
  %.361 = phi i32 [ %28, %.loopexit.sink.split ], [ undef, %Vec_IntFind.exit ]
  %.357 = phi i32 [ %30, %.loopexit.sink.split ], [ undef, %Vec_IntFind.exit ]
  %31 = getelementptr i8, ptr %3, i64 4
  %.val.i = load i32, ptr %31, align 4, !tbaa !33
  %32 = icmp sgt i32 %.val.i, 1
  br i1 %32, label %.lr.ph.i76, label %Gia_ManMulFindNextEntryCount.exit86

.lr.ph.i76:                                       ; preds = %.loopexit
  %33 = getelementptr i8, ptr %3, i64 8
  %.val13.i = load ptr, ptr %33, align 8, !tbaa !35
  br label %38

34:                                               ; preds = %38
  %indvars.iv.next.i78 = add nuw nsw i64 %indvars.iv.i77, 2
  %35 = trunc i64 %indvars.iv.next.i78 to i32
  %36 = or disjoint i32 %35, 1
  %37 = icmp slt i32 %36, %.val.i
  br i1 %37, label %38, label %.lr.ph.i81, !llvm.loop !74

38:                                               ; preds = %34, %.lr.ph.i76
  %indvars.iv.i77 = phi i64 [ 0, %.lr.ph.i76 ], [ %indvars.iv.next.i78, %34 ]
  %39 = getelementptr inbounds nuw i32, ptr %.val13.i, i64 %indvars.iv.i77
  %40 = load i32, ptr %39, align 4, !tbaa !29
  %41 = icmp eq i32 %40, %.361
  br i1 %41, label %.critedge.split.loop.exit14.i, label %34

.critedge.split.loop.exit14.i:                    ; preds = %38
  %42 = and i64 %indvars.iv.i77, 4294967294
  %43 = or disjoint i64 %42, 1
  %44 = getelementptr inbounds nuw i32, ptr %.val13.i, i64 %43
  %45 = load i32, ptr %44, align 4, !tbaa !29
  br label %.lr.ph.i81

.lr.ph.i81:                                       ; preds = %34, %.critedge.split.loop.exit14.i
  %.010.i = phi i32 [ %45, %.critedge.split.loop.exit14.i ], [ -1, %34 ]
  br label %50

46:                                               ; preds = %50
  %indvars.iv.next.i84 = add nuw nsw i64 %indvars.iv.i83, 2
  %47 = trunc i64 %indvars.iv.next.i84 to i32
  %48 = or disjoint i32 %47, 1
  %49 = icmp slt i32 %48, %.val.i
  br i1 %49, label %50, label %Gia_ManMulFindNextEntryCount.exit86, !llvm.loop !74

50:                                               ; preds = %46, %.lr.ph.i81
  %indvars.iv.i83 = phi i64 [ 0, %.lr.ph.i81 ], [ %indvars.iv.next.i84, %46 ]
  %51 = getelementptr inbounds nuw i32, ptr %.val13.i, i64 %indvars.iv.i83
  %52 = load i32, ptr %51, align 4, !tbaa !29
  %53 = icmp eq i32 %52, %.357
  br i1 %53, label %.critedge.split.loop.exit14.i85, label %46

.critedge.split.loop.exit14.i85:                  ; preds = %50
  %54 = and i64 %indvars.iv.i83, 4294967294
  %55 = or disjoint i64 %54, 1
  %56 = getelementptr inbounds nuw i32, ptr %.val13.i, i64 %55
  %57 = load i32, ptr %56, align 4, !tbaa !29
  br label %Gia_ManMulFindNextEntryCount.exit86

Gia_ManMulFindNextEntryCount.exit86:              ; preds = %46, %.loopexit, %.critedge.split.loop.exit14.i85
  %.010.i97 = phi i32 [ %.010.i, %.critedge.split.loop.exit14.i85 ], [ -1, %.loopexit ], [ %.010.i, %46 ]
  %.010.i80 = phi i32 [ %57, %.critedge.split.loop.exit14.i85 ], [ -1, %.loopexit ], [ -1, %46 ]
  %.not = icmp sgt i32 %.010.i97, %.010.i80
  %58 = select i1 %.not, i32 %.357, i32 %.361
  store i32 %58, ptr %4, align 4, !tbaa !29
  %59 = select i1 %.not, i32 %.361, i32 %.357
  store i32 %59, ptr %5, align 4, !tbaa !29
  %.val63128 = load i32, ptr %7, align 4, !tbaa !33
  %60 = icmp sgt i32 %.val63128, 0
  br i1 %60, label %.lr.ph130, label %.critedge

.lr.ph130:                                        ; preds = %Gia_ManMulFindNextEntryCount.exit86, %Vec_IntFind.exit94.thread
  %.val63143 = phi i32 [ %.val63, %Vec_IntFind.exit94.thread ], [ %.val63128, %Gia_ManMulFindNextEntryCount.exit86 ]
  %indvars.iv140 = phi i64 [ %indvars.iv.next141, %Vec_IntFind.exit94.thread ], [ 0, %Gia_ManMulFindNextEntryCount.exit86 ]
  %61 = getelementptr inbounds nuw i32, ptr %.val73, i64 %indvars.iv140
  %62 = load i32, ptr %61, align 4, !tbaa !29
  %63 = sext i32 %62 to i64
  %64 = getelementptr inbounds %struct.Vec_Int_t_, ptr %.val75, i64 %63
  %65 = getelementptr i8, ptr %64, i64 4
  %.val = load i32, ptr %65, align 4, !tbaa !33
  %66 = icmp sgt i32 %.val, 0
  br i1 %66, label %.lr.ph.i88, label %Vec_IntFind.exit94.thread

.lr.ph.i88:                                       ; preds = %.lr.ph130
  %67 = getelementptr inbounds nuw i8, ptr %64, i64 8
  %68 = load ptr, ptr %67, align 8, !tbaa !35
  %wide.trip.count.i89 = zext nneg i32 %.val to i64
  br label %69

69:                                               ; preds = %73, %.lr.ph.i88
  %indvars.iv.i90 = phi i64 [ 0, %.lr.ph.i88 ], [ %indvars.iv.next.i91, %73 ]
  %70 = getelementptr inbounds nuw i32, ptr %68, i64 %indvars.iv.i90
  %71 = load i32, ptr %70, align 4, !tbaa !29
  %72 = icmp eq i32 %71, %2
  br i1 %72, label %Vec_IntFind.exit94, label %73

73:                                               ; preds = %69
  %indvars.iv.next.i91 = add nuw nsw i64 %indvars.iv.i90, 1
  %exitcond.not.i92 = icmp eq i64 %indvars.iv.next.i91, %wide.trip.count.i89
  br i1 %exitcond.not.i92, label %Vec_IntFind.exit94.thread, label %69, !llvm.loop !61

Vec_IntFind.exit94:                               ; preds = %69
  store i32 0, ptr %65, align 4, !tbaa !33
  %.val63.pre = load i32, ptr %7, align 4, !tbaa !33
  br label %Vec_IntFind.exit94.thread

Vec_IntFind.exit94.thread:                        ; preds = %73, %Vec_IntFind.exit94, %.lr.ph130
  %.val63 = phi i32 [ %.val63.pre, %Vec_IntFind.exit94 ], [ %.val63143, %.lr.ph130 ], [ %.val63143, %73 ]
  %indvars.iv.next141 = add nuw nsw i64 %indvars.iv140, 1
  %74 = sext i32 %.val63 to i64
  %75 = icmp slt i64 %indvars.iv.next141, %74
  br i1 %75, label %.lr.ph130, label %.critedge, !llvm.loop !75

Vec_IntFind.exit.thread:                          ; preds = %24, %Vec_IntFind.exit, %11
  %indvars.iv.next = add nuw nsw i64 %indvars.iv, 1
  %exitcond.not = icmp eq i64 %indvars.iv.next, %wide.trip.count
  br i1 %exitcond.not, label %.critedge, label %11, !llvm.loop !76

.critedge:                                        ; preds = %Vec_IntFind.exit.thread, %Vec_IntFind.exit94.thread, %6, %Gia_ManMulFindNextEntryCount.exit86
  %.3 = phi i32 [ 1, %Gia_ManMulFindNextEntryCount.exit86 ], [ 0, %6 ], [ 1, %Vec_IntFind.exit94.thread ], [ 0, %Vec_IntFind.exit.thread ]
  ret i32 %.3
}